target datalayout = "e-m:e-p270:32:32-p271:32:32-p272:64:64-i64:64-i128:128-f80:128-n8:16:32:64-S128"
target triple = "x86_64-pc-linux-gnu"

%struct.pmix_object_t = type { %union.pthread_mutex_t, ptr, i32, %struct.pmix_tma }
%union.pthread_mutex_t = type { %struct.__pthread_mutex_s }
%struct.__pthread_mutex_s = type { i32, i32, i32, i32, i32, i16, i16, %struct.__pthread_internal_list }
%struct.__pthread_internal_list = type { ptr, ptr }
%struct.pmix_tma = type { ptr, ptr, ptr, ptr, ptr, ptr, ptr, ptr }
%struct.pmix_bfrop_type_info_t = type { %struct.pmix_object_t, i16, ptr, ptr, ptr, ptr, ptr }
%struct.pmix_pointer_array_t = type { %struct.pmix_object_t, i32, i32, i32, i32, i32, ptr, ptr }
%struct.pmix_proc = type { [256 x i8], i32 }
%struct.pmix_value = type { i16, %union.anon }
%union.anon = type { %struct.pmix_envar_t }
%struct.pmix_envar_t = type { ptr, ptr, i8 }
%struct.pmix_pdata = type { %struct.pmix_proc, [512 x i8], %struct.pmix_value }

@.str = private unnamed_addr constant [37 x i8] c"PMIX ERROR: %s in file %s at line %d\00", align 1
@.str.1 = private unnamed_addr constant [23 x i8] c"base/bfrop_base_pack.c\00", align 1

; Function Attrs: inlinehint nounwind uwtable
define internal ptr @pmix_pointer_array_get_item(ptr noundef %0, i32 noundef %1) #3 {
  %3 = alloca ptr, align 8
  %4 = alloca ptr, align 8
  %5 = alloca i32, align 4
  %6 = alloca ptr, align 8
  %7 = alloca i32, align 4
  store ptr %0, ptr %4, align 8, !tbaa !3
  store i32 %1, ptr %5, align 4, !tbaa !9
  call void @llvm.lifetime.start.p0(i64 8, ptr %6) #9
  %8 = load i32, ptr %5, align 4, !tbaa !9
  %9 = icmp sgt i32 0, %8
  br i1 %9, label %16, label %10

10:                                               ; preds = %2
  %11 = load ptr, ptr %4, align 8, !tbaa !3
  %12 = getelementptr inbounds nuw %struct.pmix_pointer_array_t, ptr %11, i32 0, i32 3
  %13 = load i32, ptr %12, align 8, !tbaa !22
  %14 = load i32, ptr %5, align 4, !tbaa !9
  %15 = icmp sle i32 %13, %14
  br label %16

16:                                               ; preds = %10, %2
  %17 = phi i1 [ true, %2 ], [ %15, %10 ]
  %18 = xor i1 %17, true
  %19 = xor i1 %18, true
  %20 = zext i1 %19 to i32
  %21 = sext i32 %20 to i64
  %22 = call i64 @llvm.expect.i64(i64 %21, i64 0)
  %23 = icmp ne i64 %22, 0
  br i1 %23, label %24, label %25

24:                                               ; preds = %16
  store ptr null, ptr %3, align 8
  store i32 1, ptr %7, align 4
  br label %34

25:                                               ; preds = %16
  %26 = load ptr, ptr %4, align 8, !tbaa !3
  %27 = getelementptr inbounds nuw %struct.pmix_pointer_array_t, ptr %26, i32 0, i32 7
  %28 = load ptr, ptr %27, align 8, !tbaa !25
  %29 = load i32, ptr %5, align 4, !tbaa !9
  %30 = sext i32 %29 to i64
  %31 = getelementptr inbounds ptr, ptr %28, i64 %30
  %32 = load ptr, ptr %31, align 8, !tbaa !8
  store ptr %32, ptr %6, align 8, !tbaa !8
  %33 = load ptr, ptr %6, align 8, !tbaa !8
  store ptr %33, ptr %3, align 8
  store i32 1, ptr %7, align 4
  br label %34

34:                                               ; preds = %25, %24
  call void @llvm.lifetime.end.p0(i64 8, ptr %6) #9
  %35 = load ptr, ptr %3, align 8
  ret ptr %35
}

; Function Attrs: nounwind uwtable
define i32 @pmix_bfrops_base_pack_pdata(ptr noundef %0, ptr noundef %1, ptr noundef %2, i32 noundef %3, i16 noundef zeroext %4) #0 {
  %6 = alloca i32, align 4
  %7 = alloca ptr, align 8
  %8 = alloca ptr, align 8
  %9 = alloca ptr, align 8
  %10 = alloca i32, align 4
  %11 = alloca i16, align 2
  %12 = alloca ptr, align 8
  %13 = alloca i32, align 4
  %14 = alloca i32, align 4
  %15 = alloca ptr, align 8
  %16 = alloca ptr, align 8
  %17 = alloca i32, align 4
  %18 = alloca ptr, align 8
  store ptr %0, ptr %7, align 8, !tbaa !3
  store ptr %1, ptr %8, align 8, !tbaa !8
  store ptr %2, ptr %9, align 8, !tbaa !8
  store i32 %3, ptr %10, align 4, !tbaa !9
  store i16 %4, ptr %11, align 2, !tbaa !11
  call void @llvm.lifetime.start.p0(i64 8, ptr %12) #9
  call void @llvm.lifetime.start.p0(i64 4, ptr %13) #9
  call void @llvm.lifetime.start.p0(i64 4, ptr %14) #9
  call void @llvm.lifetime.start.p0(i64 8, ptr %15) #9
  %19 = load ptr, ptr %9, align 8, !tbaa !8
  store ptr %19, ptr %12, align 8, !tbaa !97
  store i32 0, ptr %13, align 4, !tbaa !9
  br label %20

20:                                               ; preds = %131, %5
  %21 = load i32, ptr %13, align 4, !tbaa !9
  %22 = load i32, ptr %10, align 4, !tbaa !9
  %23 = icmp slt i32 %21, %22
  br i1 %23, label %24, label %134

24:                                               ; preds = %20
  br label %25

25:                                               ; preds = %24
  call void @llvm.lifetime.start.p0(i64 8, ptr %16) #9
  %26 = load ptr, ptr %7, align 8, !tbaa !3
  %27 = call ptr @pmix_pointer_array_get_item(ptr noundef %26, i32 noundef 22)
  store ptr %27, ptr %16, align 8, !tbaa !8
  %28 = load ptr, ptr %16, align 8, !tbaa !8
  %29 = icmp eq ptr null, %28
  br i1 %29, label %30, label %31

30:                                               ; preds = %25
  store i32 -16, ptr %14, align 4, !tbaa !9
  br label %43

31:                                               ; preds = %25
  %32 = load ptr, ptr %16, align 8, !tbaa !8
  %33 = getelementptr inbounds nuw %struct.pmix_bfrop_type_info_t, ptr %32, i32 0, i32 3
  %34 = load ptr, ptr %33, align 8, !tbaa !20
  %35 = load ptr, ptr %7, align 8, !tbaa !3
  %36 = load ptr, ptr %8, align 8, !tbaa !8
  %37 = load ptr, ptr %12, align 8, !tbaa !97
  %38 = load i32, ptr %13, align 4, !tbaa !9
  %39 = sext i32 %38 to i64
  %40 = getelementptr inbounds %struct.pmix_pdata, ptr %37, i64 %39
  %41 = getelementptr inbounds nuw %struct.pmix_pdata, ptr %40, i32 0, i32 0
  %42 = call i32 %34(ptr noundef %35, ptr noundef %36, ptr noundef %41, i32 noundef 1, i16 noundef zeroext 22)
  store i32 %42, ptr %14, align 4, !tbaa !9
  br label %43

43:                                               ; preds = %31, %30
  call void @llvm.lifetime.end.p0(i64 8, ptr %16) #9
  br label %44

44:                                               ; preds = %43
  br label %45

45:                                               ; preds = %44
  %46 = load i32, ptr %14, align 4, !tbaa !9
  %47 = icmp ne i32 0, %46
  br i1 %47, label %48, label %50

48:                                               ; preds = %45
  %49 = load i32, ptr %14, align 4, !tbaa !9
  store i32 %49, ptr %6, align 4
  store i32 1, ptr %17, align 4
  br label %135

50:                                               ; preds = %45
  %51 = load ptr, ptr %12, align 8, !tbaa !97
  %52 = load i32, ptr %13, align 4, !tbaa !9
  %53 = sext i32 %52 to i64
  %54 = getelementptr inbounds %struct.pmix_pdata, ptr %51, i64 %53
  %55 = getelementptr inbounds nuw %struct.pmix_pdata, ptr %54, i32 0, i32 1
  %56 = getelementptr inbounds [512 x i8], ptr %55, i64 0, i64 0
  store ptr %56, ptr %15, align 8, !tbaa !37
  br label %57

57:                                               ; preds = %50
  call void @llvm.lifetime.start.p0(i64 8, ptr %18) #9
  %58 = load ptr, ptr %7, align 8, !tbaa !3
  %59 = call ptr @pmix_pointer_array_get_item(ptr noundef %58, i32 noundef 3)
  store ptr %59, ptr %18, align 8, !tbaa !8
  %60 = load ptr, ptr %18, align 8, !tbaa !8
  %61 = icmp eq ptr null, %60
  br i1 %61, label %62, label %63

62:                                               ; preds = %57
  store i32 -16, ptr %14, align 4, !tbaa !9
  br label %70

63:                                               ; preds = %57
  %64 = load ptr, ptr %18, align 8, !tbaa !8
  %65 = getelementptr inbounds nuw %struct.pmix_bfrop_type_info_t, ptr %64, i32 0, i32 3
  %66 = load ptr, ptr %65, align 8, !tbaa !20
  %67 = load ptr, ptr %7, align 8, !tbaa !3
  %68 = load ptr, ptr %8, align 8, !tbaa !8
  %69 = call i32 %66(ptr noundef %67, ptr noundef %68, ptr noundef %15, i32 noundef 1, i16 noundef zeroext 3)
  store i32 %69, ptr %14, align 4, !tbaa !9
  br label %70

70:                                               ; preds = %63, %62
  call void @llvm.lifetime.end.p0(i64 8, ptr %18) #9
  br label %71

71:                                               ; preds = %70
  br label %72

72:                                               ; preds = %71
  %73 = load i32, ptr %14, align 4, !tbaa !9
  %74 = icmp ne i32 0, %73
  br i1 %74, label %75, label %86

75:                                               ; preds = %72
  br label %76

76:                                               ; preds = %75
  %77 = load i32, ptr %14, align 4, !tbaa !9
  %78 = icmp ne i32 -2, %77
  br i1 %78, label %79, label %82

79:                                               ; preds = %76
  %80 = load i32, ptr %14, align 4, !tbaa !9
  %81 = call ptr @PMIx_Error_string(i32 noundef %80)
  call void (i32, ptr, ...) @pmix_output(i32 noundef 0, ptr noundef @.str, ptr noundef %81, ptr noundef @.str.1, i32 noundef 629)
  br label %82

82:                                               ; preds = %79, %76
  br label %83

83:                                               ; preds = %82
  br label %84

84:                                               ; preds = %83
  %85 = load i32, ptr %14, align 4, !tbaa !9
  store i32 %85, ptr %6, align 4
  store i32 1, ptr %17, align 4
  br label %135

86:                                               ; preds = %72
  %87 = load ptr, ptr %7, align 8, !tbaa !3
  %88 = load ptr, ptr %8, align 8, !tbaa !8
  %89 = load ptr, ptr %12, align 8, !tbaa !97
  %90 = load i32, ptr %13, align 4, !tbaa !9
  %91 = sext i32 %90 to i64
  %92 = getelementptr inbounds %struct.pmix_pdata, ptr %89, i64 %91
  %93 = getelementptr inbounds nuw %struct.pmix_pdata, ptr %92, i32 0, i32 2
  %94 = getelementptr inbounds nuw %struct.pmix_value, ptr %93, i32 0, i32 0
  %95 = load i16, ptr %94, align 8, !tbaa !99
  %96 = call i32 @pmix_bfrop_store_data_type(ptr noundef %87, ptr noundef %88, i16 noundef zeroext %95)
  store i32 %96, ptr %14, align 4, !tbaa !9
  %97 = icmp ne i32 0, %96
  br i1 %97, label %98, label %109

98:                                               ; preds = %86
  br label %99

99:                                               ; preds = %98
  %100 = load i32, ptr %14, align 4, !tbaa !9
  %101 = icmp ne i32 -2, %100
  br i1 %101, label %102, label %105

102:                                              ; preds = %99
  %103 = load i32, ptr %14, align 4, !tbaa !9
  %104 = call ptr @PMIx_Error_string(i32 noundef %103)
  call void (i32, ptr, ...) @pmix_output(i32 noundef 0, ptr noundef @.str, ptr noundef %104, ptr noundef @.str.1, i32 noundef 635)
  br label %105

105:                                              ; preds = %102, %99
  br label %106

106:                                              ; preds = %105
  br label %107

107:                                              ; preds = %106
  %108 = load i32, ptr %14, align 4, !tbaa !9
  store i32 %108, ptr %6, align 4
  store i32 1, ptr %17, align 4
  br label %135

109:                                              ; preds = %86
  %110 = load ptr, ptr %7, align 8, !tbaa !3
  %111 = load ptr, ptr %8, align 8, !tbaa !8
  %112 = load ptr, ptr %12, align 8, !tbaa !97
  %113 = load i32, ptr %13, align 4, !tbaa !9
  %114 = sext i32 %113 to i64
  %115 = getelementptr inbounds %struct.pmix_pdata, ptr %112, i64 %114
  %116 = getelementptr inbounds nuw %struct.pmix_pdata, ptr %115, i32 0, i32 2
  %117 = call i32 @pmix_bfrops_base_pack_val(ptr noundef %110, ptr noundef %111, ptr noundef %116)
  store i32 %117, ptr %14, align 4, !tbaa !9
  %118 = icmp ne i32 0, %117
  br i1 %118, label %119, label %130

119:                                              ; preds = %109
  br label %120

120:                                              ; preds = %119
  %121 = load i32, ptr %14, align 4, !tbaa !9
  %122 = icmp ne i32 -2, %121
  br i1 %122, label %123, label %126

123:                                              ; preds = %120
  %124 = load i32, ptr %14, align 4, !tbaa !9
  %125 = call ptr @PMIx_Error_string(i32 noundef %124)
  call void (i32, ptr, ...) @pmix_output(i32 noundef 0, ptr noundef @.str, ptr noundef %125, ptr noundef @.str.1, i32 noundef 640)
  br label %126

126:                                              ; preds = %123, %120
  br label %127

127:                                              ; preds = %126
  br label %128

128:                                              ; preds = %127
  %129 = load i32, ptr %14, align 4, !tbaa !9
  store i32 %129, ptr %6, align 4
  store i32 1, ptr %17, align 4
  br label %135

130:                                              ; preds = %109
  br label %131

131:                                              ; preds = %130
  %132 = load i32, ptr %13, align 4, !tbaa !9
  %133 = add nsw i32 %132, 1
  store i32 %133, ptr %13, align 4, !tbaa !9
  br label %20, !llvm.loop !102

134:                                              ; preds = %20
  store i32 0, ptr %6, align 4
  store i32 1, ptr %17, align 4
  br label %135

135:                                              ; preds = %134, %128, %107, %84, %48
  call void @llvm.lifetime.end.p0(i64 8, ptr %15) #9
  call void @llvm.lifetime.end.p0(i64 4, ptr %14) #9
  call void @llvm.lifetime.end.p0(i64 4, ptr %13) #9
  call void @llvm.lifetime.end.p0(i64 8, ptr %12) #9
  %136 = load i32, ptr %6, align 4
  ret i32 %136
}