; Function Attrs: nounwind uwtable
define i32 @pmix_bfrops_base_pack_pdata(ptr noundef %0, ptr noundef %1, ptr noundef %2, i32 noundef %3, i16 noundef zeroext %4) local_unnamed_addr #0 {
  %6 = alloca ptr, align 8
  call void @llvm.lifetime.start.p0(i64 8, ptr nonnull %6) #8
  %7 = icmp sgt i32 %3, 0
  br i1 %7, label %.lr.ph, label %.thread

.lr.ph:                                           ; preds = %5
  %8 = getelementptr inbounds nuw i8, ptr %0, i64 128
  %9 = getelementptr inbounds nuw i8, ptr %0, i64 152
  %wide.trip.count = zext nneg i32 %3 to i64
  br label %10

10:                                               ; preds = %.lr.ph, %38
  %indvars.iv = phi i64 [ 0, %.lr.ph ], [ %indvars.iv.next, %38 ]
  %11 = load i32, ptr %8, align 8, !tbaa !15
  %.not.i = icmp sgt i32 %11, 22
  br i1 %.not.i, label %pmix_pointer_array_get_item.exit, label %.thread, !prof !18

pmix_pointer_array_get_item.exit:                 ; preds = %10
  %12 = load ptr, ptr %9, align 8, !tbaa !19
  %13 = getelementptr inbounds nuw i8, ptr %12, i64 176
  %14 = load ptr, ptr %13, align 8, !tbaa !20
  %15 = icmp eq ptr %14, null
  br i1 %15, label %.thread, label %16

16:                                               ; preds = %pmix_pointer_array_get_item.exit
  %17 = getelementptr inbounds nuw i8, ptr %14, i64 136
  %18 = load ptr, ptr %17, align 8, !tbaa !21
  %19 = getelementptr inbounds nuw %struct.pmix_pdata, ptr %2, i64 %indvars.iv
  %20 = call i32 %18(ptr noundef nonnull %0, ptr noundef %1, ptr noundef %19, i32 noundef 1, i16 noundef zeroext 22) #8
  %.not = icmp eq i32 %20, 0
  br i1 %.not, label %21, label %.thread

21:                                               ; preds = %16
  %22 = getelementptr inbounds nuw i8, ptr %19, i64 260
  store ptr %22, ptr %6, align 8, !tbaa !45
  %23 = load i32, ptr %8, align 8, !tbaa !15
  %.not.i50 = icmp sgt i32 %23, 3
  br i1 %.not.i50, label %pmix_pointer_array_get_item.exit52, label %.thread.sink.split, !prof !18

pmix_pointer_array_get_item.exit52:               ; preds = %21
  %24 = load ptr, ptr %9, align 8, !tbaa !19
  %25 = getelementptr inbounds nuw i8, ptr %24, i64 24
  %26 = load ptr, ptr %25, align 8, !tbaa !20
  %27 = icmp eq ptr %26, null
  br i1 %27, label %.thread.sink.split, label %28

28:                                               ; preds = %pmix_pointer_array_get_item.exit52
  %29 = getelementptr inbounds nuw i8, ptr %26, i64 136
  %30 = load ptr, ptr %29, align 8, !tbaa !21
  %31 = call i32 %30(ptr noundef nonnull %0, ptr noundef %1, ptr noundef nonnull %6, i32 noundef 1, i16 noundef zeroext 3) #8
  switch i32 %31, label %.thread.sink.split [
    i32 0, label %32
    i32 -2, label %.thread
  ]

32:                                               ; preds = %28
  %33 = getelementptr inbounds nuw i8, ptr %19, i64 776
  %34 = load i16, ptr %33, align 8, !tbaa !73
  %35 = call i32 @pmix_bfrop_store_data_type(ptr noundef nonnull %0, ptr noundef %1, i16 noundef zeroext %34) #8
  switch i32 %35, label %.thread.sink.split [
    i32 0, label %36
    i32 -2, label %.thread
  ]

36:                                               ; preds = %32
  %37 = call i32 @pmix_bfrops_base_pack_val(ptr noundef nonnull %0, ptr noundef %1, ptr noundef nonnull %33)
  switch i32 %37, label %.thread.sink.split [
    i32 0, label %38
    i32 -2, label %.thread
  ]

38:                                               ; preds = %36
  %indvars.iv.next = add nuw nsw i64 %indvars.iv, 1
  %exitcond.not = icmp eq i64 %indvars.iv.next, %wide.trip.count
  br i1 %exitcond.not, label %.thread, label %10, !llvm.loop !76

.thread.sink.split:                               ; preds = %36, %32, %28, %pmix_pointer_array_get_item.exit52, %21
  %.lcssa79.sink = phi i32 [ %31, %28 ], [ -16, %pmix_pointer_array_get_item.exit52 ], [ -16, %21 ], [ %35, %32 ], [ %37, %36 ]
  %.sink80 = phi i32 [ 629, %28 ], [ 629, %pmix_pointer_array_get_item.exit52 ], [ 629, %21 ], [ 635, %32 ], [ 640, %36 ]
  %39 = call ptr @PMIx_Error_string(i32 noundef %.lcssa79.sink) #8
  call void (i32, ptr, ...) @pmix_output(i32 noundef 0, ptr noundef nonnull @.str, ptr noundef %39, ptr noundef nonnull @.str.1, i32 noundef %.sink80) #8
  br label %.thread

.thread:                                          ; preds = %16, %28, %32, %36, %38, %pmix_pointer_array_get_item.exit, %10, %.thread.sink.split, %5
  %.0 = phi i32 [ 0, %5 ], [ %.lcssa79.sink, %.thread.sink.split ], [ %20, %16 ], [ %31, %28 ], [ %35, %32 ], [ %37, %36 ], [ 0, %38 ], [ -16, %pmix_pointer_array_get_item.exit ], [ -16, %10 ]
  call void @llvm.lifetime.end.p0(i64 8, ptr nonnull %6) #8
  ret i32 %.0
}